target datalayout = "e-m:e-p270:32:32-p271:32:32-p272:64:64-i64:64-i128:128-f80:128-n8:16:32:64-S128"
target triple = "x86_64-unknown-linux-gnu"

%struct.QEMUIOVector = type { ptr, i32, %union.anon }
%union.anon = type { %struct.anon }
%struct.anon = type { i32, %struct.iovec }
%struct.iovec = type { ptr, i64 }
%struct.IDEState = type { ptr, i8, i32, i32, i32, i32, i32, i32, i32, i64, i32, i32, [512 x i8], i32, [21 x i8], [41 x i8], i64, i8, i8, i32, i8, i8, i8, i8, i8, i8, i8, i8, i8, i8, i8, i8, i8, ptr, [9 x i8], %struct.unreported_events, i8, i8, i8, i8, i8, i32, i32, i32, i32, i32, i32, %struct.BlockAcctCookie, ptr, %struct.QEMUIOVector, %struct.anon.1, i64, i32, %struct.QEMUSGList, i32, ptr, ptr, ptr, ptr, i32, i32, i32, i8, ptr, i32, i8, i32, ptr, i32, i32, i8, i8, i32, i8, ptr, i32 }
%struct.unreported_events = type { i8, i8 }
%struct.BlockAcctCookie = type { i64, i64, i32 }
%struct.anon.1 = type { ptr }
%struct.QEMUSGList = type { ptr, i32, i32, i64, ptr, ptr }

; Function Attrs: nounwind sspstrong uwtable
define dso_local i64 @ide_get_sector(ptr noundef %s) #0 {
entry:
  %s.addr = alloca ptr, align 8
  %sector_num = alloca i64, align 8
  store ptr %s, ptr %s.addr, align 8
  %0 = load ptr, ptr %s.addr, align 8
  %select = getelementptr inbounds %struct.IDEState, ptr %0, i32 0, i32 28
  %1 = load i8, ptr %select, align 8
  %conv = zext i8 %1 to i32
  %and = and i32 %conv, 64
  %tobool = icmp ne i32 %and, 0
  br i1 %tobool, label %if.then, label %if.else33

if.then:                                          ; preds = %entry
  %2 = load ptr, ptr %s.addr, align 8
  %lba48 = getelementptr inbounds %struct.IDEState, ptr %2, i32 0, i32 32
  %3 = load i8, ptr %lba48, align 4
  %tobool1 = icmp ne i8 %3, 0
  br i1 %tobool1, label %if.then2, label %if.else

if.then2:                                         ; preds = %if.then
  %4 = load ptr, ptr %s.addr, align 8
  %hob_hcyl = getelementptr inbounds %struct.IDEState, ptr %4, i32 0, i32 27
  %5 = load i8, ptr %hob_hcyl, align 1
  %conv3 = zext i8 %5 to i64
  %shl = shl i64 %conv3, 40
  %6 = load ptr, ptr %s.addr, align 8
  %hob_lcyl = getelementptr inbounds %struct.IDEState, ptr %6, i32 0, i32 26
  %7 = load i8, ptr %hob_lcyl, align 2
  %conv4 = zext i8 %7 to i64
  %shl5 = shl i64 %conv4, 32
  %or = or i64 %shl, %shl5
  %8 = load ptr, ptr %s.addr, align 8
  %hob_sector = getelementptr inbounds %struct.IDEState, ptr %8, i32 0, i32 25
  %9 = load i8, ptr %hob_sector, align 1
  %conv6 = zext i8 %9 to i64
  %shl7 = shl i64 %conv6, 24
  %or8 = or i64 %or, %shl7
  %10 = load ptr, ptr %s.addr, align 8
  %hcyl = getelementptr inbounds %struct.IDEState, ptr %10, i32 0, i32 22
  %11 = load i8, ptr %hcyl, align 2
  %conv9 = zext i8 %11 to i64
  %shl10 = shl i64 %conv9, 16
  %or11 = or i64 %or8, %shl10
  %12 = load ptr, ptr %s.addr, align 8
  %lcyl = getelementptr inbounds %struct.IDEState, ptr %12, i32 0, i32 21
  %13 = load i8, ptr %lcyl, align 1
  %conv12 = zext i8 %13 to i64
  %shl13 = shl i64 %conv12, 8
  %or14 = or i64 %or11, %shl13
  %14 = load ptr, ptr %s.addr, align 8
  %sector = getelementptr inbounds %struct.IDEState, ptr %14, i32 0, i32 20
  %15 = load i8, ptr %sector, align 8
  %conv15 = zext i8 %15 to i64
  %or16 = or i64 %or14, %conv15
  store i64 %or16, ptr %sector_num, align 8
  br label %if.end

if.else:                                          ; preds = %if.then
  %16 = load ptr, ptr %s.addr, align 8
  %select17 = getelementptr inbounds %struct.IDEState, ptr %16, i32 0, i32 28
  %17 = load i8, ptr %select17, align 8
  %conv18 = zext i8 %17 to i32
  %and19 = and i32 %conv18, 15
  %shl20 = shl i32 %and19, 24
  %18 = load ptr, ptr %s.addr, align 8
  %hcyl21 = getelementptr inbounds %struct.IDEState, ptr %18, i32 0, i32 22
  %19 = load i8, ptr %hcyl21, align 2
  %conv22 = zext i8 %19 to i32
  %shl23 = shl i32 %conv22, 16
  %or24 = or i32 %shl20, %shl23
  %20 = load ptr, ptr %s.addr, align 8
  %lcyl25 = getelementptr inbounds %struct.IDEState, ptr %20, i32 0, i32 21
  %21 = load i8, ptr %lcyl25, align 1
  %conv26 = zext i8 %21 to i32
  %shl27 = shl i32 %conv26, 8
  %or28 = or i32 %or24, %shl27
  %22 = load ptr, ptr %s.addr, align 8
  %sector29 = getelementptr inbounds %struct.IDEState, ptr %22, i32 0, i32 20
  %23 = load i8, ptr %sector29, align 8
  %conv30 = zext i8 %23 to i32
  %or31 = or i32 %or28, %conv30
  %conv32 = sext i32 %or31 to i64
  store i64 %conv32, ptr %sector_num, align 8
  br label %if.end

if.end:                                           ; preds = %if.else, %if.then2
  br label %if.end50

if.else33:                                        ; preds = %entry
  %24 = load ptr, ptr %s.addr, align 8
  %hcyl34 = getelementptr inbounds %struct.IDEState, ptr %24, i32 0, i32 22
  %25 = load i8, ptr %hcyl34, align 2
  %conv35 = zext i8 %25 to i32
  %shl36 = shl i32 %conv35, 8
  %26 = load ptr, ptr %s.addr, align 8
  %lcyl37 = getelementptr inbounds %struct.IDEState, ptr %26, i32 0, i32 21
  %27 = load i8, ptr %lcyl37, align 1
  %conv38 = zext i8 %27 to i32
  %or39 = or i32 %shl36, %conv38
  %28 = load ptr, ptr %s.addr, align 8
  %heads = getelementptr inbounds %struct.IDEState, ptr %28, i32 0, i32 6
  %29 = load i32, ptr %heads, align 4
  %mul = mul i32 %or39, %29
  %30 = load ptr, ptr %s.addr, align 8
  %sectors = getelementptr inbounds %struct.IDEState, ptr %30, i32 0, i32 7
  %31 = load i32, ptr %sectors, align 8
  %mul40 = mul i32 %mul, %31
  %32 = load ptr, ptr %s.addr, align 8
  %select41 = getelementptr inbounds %struct.IDEState, ptr %32, i32 0, i32 28
  %33 = load i8, ptr %select41, align 8
  %conv42 = zext i8 %33 to i32
  %and43 = and i32 %conv42, 15
  %34 = load ptr, ptr %s.addr, align 8
  %sectors44 = getelementptr inbounds %struct.IDEState, ptr %34, i32 0, i32 7
  %35 = load i32, ptr %sectors44, align 8
  %mul45 = mul i32 %and43, %35
  %add = add i32 %mul40, %mul45
  %36 = load ptr, ptr %s.addr, align 8
  %sector46 = getelementptr inbounds %struct.IDEState, ptr %36, i32 0, i32 20
  %37 = load i8, ptr %sector46, align 8
  %conv47 = zext i8 %37 to i32
  %sub = sub i32 %conv47, 1
  %add48 = add i32 %add, %sub
  %conv49 = sext i32 %add48 to i64
  store i64 %conv49, ptr %sector_num, align 8
  br label %if.end50

if.end50:                                         ; preds = %if.else33, %if.end
  %38 = load i64, ptr %sector_num, align 8
  ret i64 %38
}