; Function Attrs: mustprogress nofree norecurse nosync nounwind sspstrong willreturn memory(argmem: read) uwtable
define dso_local range(i64 -2147483648, 281474976710656) i64 @ide_get_sector(ptr noundef readonly captures(none) %s) local_unnamed_addr #2 {
entry:
  %select = getelementptr inbounds nuw i8, ptr %s, i64 664
  %0 = load i8, ptr %select, align 8
  %conv = zext i8 %0 to i32
  %and = and i32 %conv, 64
  %tobool.not = icmp eq i32 %and, 0
  br i1 %tobool.not, label %if.else33, label %if.then

if.then:                                          ; preds = %entry
  %lba48 = getelementptr inbounds nuw i8, ptr %s, i64 668
  %1 = load i8, ptr %lba48, align 4
  %tobool1.not = icmp eq i8 %1, 0
  br i1 %tobool1.not, label %if.else, label %if.then2

if.then2:                                         ; preds = %if.then
  %2 = getelementptr i8, ptr %s, i64 662
  %3 = load i16, ptr %2, align 2
  %4 = zext i16 %3 to i64
  %5 = shl nuw nsw i64 %4, 32
  %hob_sector = getelementptr inbounds nuw i8, ptr %s, i64 661
  %6 = load i8, ptr %hob_sector, align 1
  %conv6 = zext i8 %6 to i64
  %shl7 = shl nuw nsw i64 %conv6, 24
  %or8 = or disjoint i64 %shl7, %5
  %hcyl = getelementptr inbounds nuw i8, ptr %s, i64 658
  %7 = load i8, ptr %hcyl, align 2
  %conv9 = zext i8 %7 to i64
  %shl10 = shl nuw nsw i64 %conv9, 16
  %or11 = or disjoint i64 %or8, %shl10
  %lcyl = getelementptr inbounds nuw i8, ptr %s, i64 657
  %8 = load i8, ptr %lcyl, align 1
  %conv12 = zext i8 %8 to i64
  %shl13 = shl nuw nsw i64 %conv12, 8
  %or14 = or disjoint i64 %or11, %shl13
  %sector = getelementptr inbounds nuw i8, ptr %s, i64 656
  %9 = load i8, ptr %sector, align 8
  %conv15 = zext i8 %9 to i64
  %or16 = or disjoint i64 %or14, %conv15
  br label %if.end50

if.else:                                          ; preds = %if.then
  %and19 = shl nuw i32 %conv, 24
  %shl20 = and i32 %and19, 251658240
  %hcyl21 = getelementptr inbounds nuw i8, ptr %s, i64 658
  %10 = load i8, ptr %hcyl21, align 2
  %conv22 = zext i8 %10 to i32
  %shl23 = shl nuw nsw i32 %conv22, 16
  %or24 = or disjoint i32 %shl23, %shl20
  %lcyl25 = getelementptr inbounds nuw i8, ptr %s, i64 657
  %11 = load i8, ptr %lcyl25, align 1
  %conv26 = zext i8 %11 to i32
  %shl27 = shl nuw nsw i32 %conv26, 8
  %or28 = or disjoint i32 %or24, %shl27
  %sector29 = getelementptr inbounds nuw i8, ptr %s, i64 656
  %12 = load i8, ptr %sector29, align 8
  %conv30 = zext i8 %12 to i32
  %or31 = or disjoint i32 %or28, %conv30
  %conv32 = zext nneg i32 %or31 to i64
  br label %if.end50

if.else33:                                        ; preds = %entry
  %13 = getelementptr i8, ptr %s, i64 657
  %14 = load i16, ptr %13, align 1
  %15 = zext i16 %14 to i32
  %heads = getelementptr inbounds nuw i8, ptr %s, i64 28
  %16 = load i32, ptr %heads, align 4
  %mul = mul i32 %16, %15
  %sectors = getelementptr inbounds nuw i8, ptr %s, i64 32
  %17 = load i32, ptr %sectors, align 8
  %and43 = and i32 %conv, 15
  %mul4019 = add i32 %mul, %and43
  %add = mul i32 %mul4019, %17
  %sector46 = getelementptr inbounds nuw i8, ptr %s, i64 656
  %18 = load i8, ptr %sector46, align 8
  %conv47 = zext i8 %18 to i32
  %sub = add nsw i32 %conv47, -1
  %add48 = add i32 %sub, %add
  %conv49 = sext i32 %add48 to i64
  br label %if.end50

if.end50:                                         ; preds = %if.then2, %if.else, %if.else33
  %sector_num.0 = phi i64 [ %or16, %if.then2 ], [ %conv32, %if.else ], [ %conv49, %if.else33 ]
  ret i64 %sector_num.0
}